; Function Attrs: null_pointer_is_valid sspstrong uwtable
define internal signext i16 @dissect_link_poa(ptr noundef %0, i16 noundef signext %1, ptr noundef %2) #0 {
  %4 = load i32, ptr @hf_link_type, align 4
  %5 = sext i16 %1 to i32
  %6 = tail call ptr @proto_tree_add_item(ptr noundef %2, i32 noundef %4, ptr noundef %0, i32 noundef %5, i32 noundef 1, i32 noundef 0)
  %7 = add i16 %1, 1
  %8 = tail call fastcc signext i16 @dissect_link_addr(ptr noundef %0, i16 noundef signext %7, ptr noundef %2)
  %9 = sext i16 %8 to i32
  %10 = tail call zeroext i8 @tvb_get_uint8(ptr noundef %0, i32 noundef %9)
  %11 = add i16 %8, 1
  %.not.i = icmp eq i8 %10, 0
  br i1 %.not.i, label %dissect_mih_list.exit, label %.lr.ph.i

.lr.ph.i:                                         ; preds = %3, %.lr.ph.i
  %.012.i = phi i16 [ %12, %.lr.ph.i ], [ %11, %3 ]
  %.01011.i = phi i8 [ %13, %.lr.ph.i ], [ 0, %3 ]
  %12 = tail call fastcc signext i16 @dissect_link_addr(ptr noundef %0, i16 noundef signext %.012.i, ptr noundef %2)
  %13 = add nuw i8 %.01011.i, 1
  %exitcond.not.i = icmp eq i8 %13, %10
  br i1 %exitcond.not.i, label %dissect_mih_list.exit, label %.lr.ph.i, !llvm.loop !11

dissect_mih_list.exit:                            ; preds = %.lr.ph.i, %3
  %.0.lcssa.i = phi i16 [ %11, %3 ], [ %12, %.lr.ph.i ]
  ret i16 %.0.lcssa.i
}